target datalayout = "e-m:e-p270:32:32-p271:32:32-p272:64:64-i64:64-i128:128-f80:128-n8:16:32:64-S128"
target triple = "x86_64-pc-linux-gnu"

%struct.PLATFORM_hid_device_ = type { i32, i32, i32, ptr, ptr }
%struct.pollfd = type { i32, i16, i16 }

@.str.10 = private unnamed_addr constant [62 x i8] c"hid_read_timeout: unexpected poll error (device disconnected)\00", align 1
@.str.31 = private unnamed_addr constant [3 x i8] c"%s\00", align 1

; Function Attrs: nounwind uwtable
define internal void @register_error_str(ptr noundef %0, ptr noundef %1) #0 {
  %3 = alloca ptr, align 8
  %4 = alloca ptr, align 8
  store ptr %0, ptr %3, align 8
  store ptr %1, ptr %4, align 8
  %5 = load ptr, ptr %3, align 8
  %6 = load ptr, ptr %5, align 8
  call void @free(ptr noundef %6) #10
  %7 = load ptr, ptr %4, align 8
  %8 = icmp ne ptr %7, null
  br i1 %8, label %9, label %12

9:                                                ; preds = %2
  %10 = load ptr, ptr %4, align 8
  %11 = call zeroext i1 (ptr, ...) @SDL_SetError_REAL(ptr noundef @.str.31, ptr noundef %10)
  br label %14

12:                                               ; preds = %2
  %13 = call zeroext i1 @SDL_ClearError_REAL()
  br label %14

14:                                               ; preds = %12, %9
  ret void
}

; Function Attrs: nounwind uwtable
define internal void @register_device_error(ptr noundef %0, ptr noundef %1) #0 {
  %3 = alloca ptr, align 8
  %4 = alloca ptr, align 8
  store ptr %0, ptr %3, align 8
  store ptr %1, ptr %4, align 8
  %5 = load ptr, ptr %3, align 8
  %6 = getelementptr inbounds nuw %struct.PLATFORM_hid_device_, ptr %5, i32 0, i32 3
  %7 = load ptr, ptr %4, align 8
  call void @register_error_str(ptr noundef %6, ptr noundef %7)
  ret void
}

; Function Attrs: nounwind uwtable
define hidden i32 @PLATFORM_hid_read_timeout(ptr noundef %0, ptr noundef %1, i64 noundef %2, i32 noundef %3) #0 {
  %5 = alloca i32, align 4
  %6 = alloca ptr, align 8
  %7 = alloca ptr, align 8
  %8 = alloca i64, align 8
  %9 = alloca i32, align 4
  %10 = alloca i32, align 4
  %11 = alloca i32, align 4
  %12 = alloca %struct.pollfd, align 4
  %13 = alloca i32, align 4
  store ptr %0, ptr %6, align 8
  store ptr %1, ptr %7, align 8
  store i64 %2, ptr %8, align 8
  store i32 %3, ptr %9, align 4
  %14 = load ptr, ptr %6, align 8
  call void @register_device_error(ptr noundef %14, ptr noundef null)
  call void @llvm.lifetime.start.p0(i64 4, ptr %10) #10
  %15 = load i32, ptr %9, align 4
  %16 = icmp sge i32 %15, 0
  br i1 %16, label %17, label %52

17:                                               ; preds = %4
  call void @llvm.lifetime.start.p0(i64 4, ptr %11) #10
  call void @llvm.lifetime.start.p0(i64 8, ptr %12) #10
  %18 = load ptr, ptr %6, align 8
  %19 = getelementptr inbounds nuw %struct.PLATFORM_hid_device_, ptr %18, i32 0, i32 0
  %20 = load i32, ptr %19, align 8
  %21 = getelementptr inbounds nuw %struct.pollfd, ptr %12, i32 0, i32 0
  store i32 %20, ptr %21, align 4
  %22 = getelementptr inbounds nuw %struct.pollfd, ptr %12, i32 0, i32 1
  store i16 1, ptr %22, align 4
  %23 = getelementptr inbounds nuw %struct.pollfd, ptr %12, i32 0, i32 2
  store i16 0, ptr %23, align 2
  %24 = load i32, ptr %9, align 4
  %25 = call i32 @poll(ptr noundef %12, i64 noundef 1, i32 noundef %24)
  store i32 %25, ptr %11, align 4
  %26 = load i32, ptr %11, align 4
  %27 = icmp eq i32 %26, 0
  br i1 %27, label %28, label %30

28:                                               ; preds = %17
  %29 = load i32, ptr %11, align 4
  store i32 %29, ptr %5, align 4
  store i32 1, ptr %13, align 4
  br label %49

30:                                               ; preds = %17
  %31 = load i32, ptr %11, align 4
  %32 = icmp eq i32 %31, -1
  br i1 %32, label %33, label %39

33:                                               ; preds = %30
  %34 = load ptr, ptr %6, align 8
  %35 = call ptr @__errno_location() #13
  %36 = load i32, ptr %35, align 4
  %37 = call ptr @strerror(i32 noundef %36) #10
  call void @register_device_error(ptr noundef %34, ptr noundef %37)
  %38 = load i32, ptr %11, align 4
  store i32 %38, ptr %5, align 4
  store i32 1, ptr %13, align 4
  br label %49

39:                                               ; preds = %30
  %40 = getelementptr inbounds nuw %struct.pollfd, ptr %12, i32 0, i32 2
  %41 = load i16, ptr %40, align 2
  %42 = sext i16 %41 to i32
  %43 = and i32 %42, 56
  %44 = icmp ne i32 %43, 0
  br i1 %44, label %45, label %47

45:                                               ; preds = %39
  %46 = load ptr, ptr %6, align 8
  call void @register_device_error(ptr noundef %46, ptr noundef @.str.10)
  store i32 -1, ptr %5, align 4
  store i32 1, ptr %13, align 4
  br label %49

47:                                               ; preds = %39
  br label %48

48:                                               ; preds = %47
  store i32 0, ptr %13, align 4
  br label %49

49:                                               ; preds = %48, %45, %33, %28
  call void @llvm.lifetime.end.p0(i64 8, ptr %12) #10
  call void @llvm.lifetime.end.p0(i64 4, ptr %11) #10
  %50 = load i32, ptr %13, align 4
  switch i32 %50, label %79 [
    i32 0, label %51
  ]

51:                                               ; preds = %49
  br label %52

52:                                               ; preds = %51, %4
  %53 = load ptr, ptr %6, align 8
  %54 = getelementptr inbounds nuw %struct.PLATFORM_hid_device_, ptr %53, i32 0, i32 0
  %55 = load i32, ptr %54, align 8
  %56 = load ptr, ptr %7, align 8
  %57 = load i64, ptr %8, align 8
  %58 = call i64 @read(i32 noundef %55, ptr noundef %56, i64 noundef %57)
  %59 = trunc i64 %58 to i32
  store i32 %59, ptr %10, align 4
  %60 = load i32, ptr %10, align 4
  %61 = icmp slt i32 %60, 0
  br i1 %61, label %62, label %77

62:                                               ; preds = %52
  %63 = call ptr @__errno_location() #13
  %64 = load i32, ptr %63, align 4
  %65 = icmp eq i32 %64, 11
  br i1 %65, label %70, label %66

66:                                               ; preds = %62
  %67 = call ptr @__errno_location() #13
  %68 = load i32, ptr %67, align 4
  %69 = icmp eq i32 %68, 115
  br i1 %69, label %70, label %71

70:                                               ; preds = %66, %62
  store i32 0, ptr %10, align 4
  br label %76

71:                                               ; preds = %66
  %72 = load ptr, ptr %6, align 8
  %73 = call ptr @__errno_location() #13
  %74 = load i32, ptr %73, align 4
  %75 = call ptr @strerror(i32 noundef %74) #10
  call void @register_device_error(ptr noundef %72, ptr noundef %75)
  br label %76

76:                                               ; preds = %71, %70
  br label %77

77:                                               ; preds = %76, %52
  %78 = load i32, ptr %10, align 4
  store i32 %78, ptr %5, align 4
  store i32 1, ptr %13, align 4
  br label %79

79:                                               ; preds = %77, %49
  call void @llvm.lifetime.end.p0(i64 4, ptr %10) #10
  %80 = load i32, ptr %5, align 4
  ret i32 %80
}