; Function Attrs: nounwind uwtable
define hidden noundef i32 @PLATFORM_hid_read_timeout(ptr noundef readonly captures(none) %0, ptr noundef captures(none) %1, i64 noundef %2, i32 noundef %3) #1 {
  %5 = alloca %struct.pollfd, align 4
  %6 = getelementptr i8, ptr %0, i64 16
  %.val27 = load ptr, ptr %6, align 8
  tail call void @free(ptr noundef %.val27) #22
  %7 = tail call zeroext i1 @SDL_ClearError_REAL() #22
  %8 = icmp sgt i32 %3, -1
  br i1 %8, label %9, label %27

9:                                                ; preds = %4
  call void @llvm.lifetime.start.p0(i64 8, ptr nonnull %5) #22
  %10 = load i32, ptr %0, align 8
  store i32 %10, ptr %5, align 4
  %11 = getelementptr inbounds nuw i8, ptr %5, i64 4
  store i16 1, ptr %11, align 4
  %12 = getelementptr inbounds nuw i8, ptr %5, i64 6
  store i16 0, ptr %12, align 2
  %13 = call i32 @poll(ptr noundef nonnull %5, i64 noundef 1, i32 noundef %3) #22
  switch i32 %13, label %22 [
    i32 0, label %register_device_error.exit.thread
    i32 -1, label %14
  ]

14:                                               ; preds = %9
  %15 = tail call ptr @__errno_location() #25
  %16 = load i32, ptr %15, align 4
  %17 = call ptr @strerror(i32 noundef %16) #22
  %.val26 = load ptr, ptr %6, align 8
  call void @free(ptr noundef %.val26) #22
  %.not.i.i = icmp eq ptr %17, null
  br i1 %.not.i.i, label %20, label %18

18:                                               ; preds = %14
  %19 = call zeroext i1 (ptr, ...) @SDL_SetError_REAL(ptr noundef nonnull @.str.31, ptr noundef nonnull %17) #22
  br label %register_device_error.exit.thread

20:                                               ; preds = %14
  %21 = call zeroext i1 @SDL_ClearError_REAL() #22
  br label %register_device_error.exit.thread

22:                                               ; preds = %9
  %23 = load i16, ptr %12, align 2
  %24 = and i16 %23, 56
  %.not = icmp eq i16 %24, 0
  br i1 %.not, label %register_device_error.exit, label %25

25:                                               ; preds = %22
  %.val25 = load ptr, ptr %6, align 8
  call void @free(ptr noundef %.val25) #22
  %26 = call zeroext i1 (ptr, ...) @SDL_SetError_REAL(ptr noundef nonnull @.str.31, ptr noundef nonnull @.str.10) #22
  br label %register_device_error.exit.thread

register_device_error.exit.thread:                ; preds = %25, %9, %18, %20
  %.017.ph = phi i32 [ -1, %20 ], [ -1, %18 ], [ %13, %9 ], [ -1, %25 ]
  call void @llvm.lifetime.end.p0(i64 8, ptr nonnull %5) #22
  br label %register_device_error.exit29

register_device_error.exit:                       ; preds = %22
  call void @llvm.lifetime.end.p0(i64 8, ptr nonnull %5) #22
  br label %27

27:                                               ; preds = %register_device_error.exit, %4
  %28 = load i32, ptr %0, align 8
  %29 = call i64 @read(i32 noundef %28, ptr noundef %1, i64 noundef %2) #22
  %30 = trunc i64 %29 to i32
  %31 = icmp slt i32 %30, 0
  br i1 %31, label %32, label %register_device_error.exit29

32:                                               ; preds = %27
  %33 = tail call ptr @__errno_location() #25
  %34 = load i32, ptr %33, align 4
  switch i32 %34, label %35 [
    i32 11, label %register_device_error.exit29
    i32 115, label %register_device_error.exit29
  ]

35:                                               ; preds = %32
  %36 = call ptr @strerror(i32 noundef %34) #22
  %.val = load ptr, ptr %6, align 8
  call void @free(ptr noundef %.val) #22
  %.not.i.i28 = icmp eq ptr %36, null
  br i1 %.not.i.i28, label %39, label %37

37:                                               ; preds = %35
  %38 = call zeroext i1 (ptr, ...) @SDL_SetError_REAL(ptr noundef nonnull @.str.31, ptr noundef nonnull %36) #22
  br label %register_device_error.exit29

39:                                               ; preds = %35
  %40 = call zeroext i1 @SDL_ClearError_REAL() #22
  br label %register_device_error.exit29

register_device_error.exit29:                     ; preds = %39, %37, %register_device_error.exit.thread, %27, %32, %32
  %.1 = phi i32 [ %30, %27 ], [ 0, %32 ], [ 0, %32 ], [ %.017.ph, %register_device_error.exit.thread ], [ %30, %37 ], [ %30, %39 ]
  ret i32 %.1
}